target datalayout = "e-m:e-p270:32:32-p271:32:32-p272:64:64-i64:64-i128:128-f80:128-n8:16:32:64-S128"
target triple = "x86_64-unknown-linux-gnu"

%"class.EA::StdC::DateTime" = type <{ i64, i32, [4 x i8] }>

@_ZN2EA4StdCL11kDaysInYearE = internal constant [26 x i32] [i32 0, i32 31, i32 59, i32 90, i32 120, i32 151, i32 181, i32 212, i32 243, i32 273, i32 304, i32 334, i32 365, i32 0, i32 31, i32 60, i32 91, i32 121, i32 152, i32 182, i32 213, i32 244, i32 274, i32 305, i32 335, i32 366], align 16

; Function Attrs: mustprogress nounwind uwtable
define dso_local noundef zeroext i1 @_ZN2EA4StdC10IsLeapYearEj(i32 noundef %nYear) #3 {
entry:
  %nYear.addr = alloca i32, align 4
  store i32 %nYear, ptr %nYear.addr, align 4
  %0 = load i32, ptr %nYear.addr, align 4
  %and = and i32 %0, 3
  %tobool = icmp ne i32 %and, 0
  br i1 %tobool, label %lor.rhs, label %land.lhs.true

land.lhs.true:                                    ; preds = %entry
  %1 = load i32, ptr %nYear.addr, align 4
  %rem = urem i32 %1, 100
  %tobool1 = icmp ne i32 %rem, 0
  br i1 %tobool1, label %lor.end, label %lor.rhs

lor.rhs:                                          ; preds = %land.lhs.true, %entry
  %2 = load i32, ptr %nYear.addr, align 4
  %rem2 = urem i32 %2, 400
  %tobool3 = icmp ne i32 %rem2, 0
  %lnot = xor i1 %tobool3, true
  br label %lor.end

lor.end:                                          ; preds = %lor.rhs, %land.lhs.true
  %3 = phi i1 [ true, %land.lhs.true ], [ %lnot, %lor.rhs ]
  ret i1 %3
}

; Function Attrs: mustprogress uwtable
define dso_local void @_ZN2EA4StdC8DateTime3SetEjjjjjjj(ptr noundef nonnull align 8 dereferenceable(12) %this, i32 noundef %nYear, i32 noundef %nMonth, i32 noundef %nDayOfMonth, i32 noundef %nHour, i32 noundef %nMinute, i32 noundef %nSecond, i32 noundef %nNanosecond) #0 align 2 {
entry:
  %this.addr = alloca ptr, align 8
  %nYear.addr = alloca i32, align 4
  %nMonth.addr = alloca i32, align 4
  %nDayOfMonth.addr = alloca i32, align 4
  %nHour.addr = alloca i32, align 4
  %nMinute.addr = alloca i32, align 4
  %nSecond.addr = alloca i32, align 4
  %nNanosecond.addr = alloca i32, align 4
  %leapYearCount = alloca i32, align 4
  %nDays = alloca i64, align 8
  %isLeapYear = alloca i32, align 4
  store ptr %this, ptr %this.addr, align 8
  store i32 %nYear, ptr %nYear.addr, align 4
  store i32 %nMonth, ptr %nMonth.addr, align 4
  store i32 %nDayOfMonth, ptr %nDayOfMonth.addr, align 4
  store i32 %nHour, ptr %nHour.addr, align 4
  store i32 %nMinute, ptr %nMinute.addr, align 4
  store i32 %nSecond, ptr %nSecond.addr, align 4
  store i32 %nNanosecond, ptr %nNanosecond.addr, align 4
  %this1 = load ptr, ptr %this.addr, align 8
  %0 = load i32, ptr %nYear.addr, align 4
  %cmp = icmp eq i32 %0, -1
  br i1 %cmp, label %if.then, label %lor.lhs.false

lor.lhs.false:                                    ; preds = %entry
  %1 = load i32, ptr %nYear.addr, align 4
  %tobool = icmp ne i32 %1, 0
  br i1 %tobool, label %if.end, label %if.then

if.then:                                          ; preds = %lor.lhs.false, %entry
  %call = call noundef i32 @_ZNK2EA4StdC8DateTime12GetParameterENS0_9ParameterE(ptr noundef nonnull align 8 dereferenceable(12) %this1, i32 noundef 1)
  store i32 %call, ptr %nYear.addr, align 4
  br label %if.end

if.end:                                           ; preds = %if.then, %lor.lhs.false
  %2 = load i32, ptr %nMonth.addr, align 4
  %cmp2 = icmp eq i32 %2, -1
  br i1 %cmp2, label %if.then5, label %lor.lhs.false3

lor.lhs.false3:                                   ; preds = %if.end
  %3 = load i32, ptr %nMonth.addr, align 4
  %tobool4 = icmp ne i32 %3, 0
  br i1 %tobool4, label %if.end7, label %if.then5

if.then5:                                         ; preds = %lor.lhs.false3, %if.end
  %call6 = call noundef i32 @_ZNK2EA4StdC8DateTime12GetParameterENS0_9ParameterE(ptr noundef nonnull align 8 dereferenceable(12) %this1, i32 noundef 2)
  store i32 %call6, ptr %nMonth.addr, align 4
  br label %if.end7

if.end7:                                          ; preds = %if.then5, %lor.lhs.false3
  %4 = load i32, ptr %nDayOfMonth.addr, align 4
  %cmp8 = icmp eq i32 %4, -1
  br i1 %cmp8, label %if.then11, label %lor.lhs.false9

lor.lhs.false9:                                   ; preds = %if.end7
  %5 = load i32, ptr %nDayOfMonth.addr, align 4
  %tobool10 = icmp ne i32 %5, 0
  br i1 %tobool10, label %if.end13, label %if.then11

if.then11:                                        ; preds = %lor.lhs.false9, %if.end7
  %call12 = call noundef i32 @_ZNK2EA4StdC8DateTime12GetParameterENS0_9ParameterE(ptr noundef nonnull align 8 dereferenceable(12) %this1, i32 noundef 6)
  store i32 %call12, ptr %nDayOfMonth.addr, align 4
  br label %if.end13

if.end13:                                         ; preds = %if.then11, %lor.lhs.false9
  %6 = load i32, ptr %nHour.addr, align 4
  %cmp14 = icmp eq i32 %6, -1
  br i1 %cmp14, label %if.then15, label %if.end17

if.then15:                                        ; preds = %if.end13
  %call16 = call noundef i32 @_ZNK2EA4StdC8DateTime12GetParameterENS0_9ParameterE(ptr noundef nonnull align 8 dereferenceable(12) %this1, i32 noundef 8)
  store i32 %call16, ptr %nHour.addr, align 4
  br label %if.end17

if.end17:                                         ; preds = %if.then15, %if.end13
  %7 = load i32, ptr %nMinute.addr, align 4
  %cmp18 = icmp eq i32 %7, -1
  br i1 %cmp18, label %if.then19, label %if.end21

if.then19:                                        ; preds = %if.end17
  %call20 = call noundef i32 @_ZNK2EA4StdC8DateTime12GetParameterENS0_9ParameterE(ptr noundef nonnull align 8 dereferenceable(12) %this1, i32 noundef 9)
  store i32 %call20, ptr %nMinute.addr, align 4
  br label %if.end21

if.end21:                                         ; preds = %if.then19, %if.end17
  %8 = load i32, ptr %nSecond.addr, align 4
  %cmp22 = icmp eq i32 %8, -1
  br i1 %cmp22, label %if.then23, label %if.end25

if.then23:                                        ; preds = %if.end21
  %call24 = call noundef i32 @_ZNK2EA4StdC8DateTime12GetParameterENS0_9ParameterE(ptr noundef nonnull align 8 dereferenceable(12) %this1, i32 noundef 10)
  store i32 %call24, ptr %nSecond.addr, align 4
  br label %if.end25

if.end25:                                         ; preds = %if.then23, %if.end21
  %9 = load i32, ptr %nNanosecond.addr, align 4
  %cmp26 = icmp eq i32 %9, -1
  br i1 %cmp26, label %if.then27, label %if.end28

if.then27:                                        ; preds = %if.end25
  %mnNanosecond = getelementptr inbounds %"class.EA::StdC::DateTime", ptr %this1, i32 0, i32 1
  %10 = load i32, ptr %mnNanosecond, align 8
  store i32 %10, ptr %nNanosecond.addr, align 4
  br label %if.end28

if.end28:                                         ; preds = %if.then27, %if.end25
  %11 = load i32, ptr %nMonth.addr, align 4
  %cmp29 = icmp ugt i32 %11, 12
  br i1 %cmp29, label %if.then30, label %if.end33

if.then30:                                        ; preds = %if.end28
  %12 = load i32, ptr %nMonth.addr, align 4
  %sub = sub i32 %12, 1
  %div = udiv i32 %sub, 12
  %13 = load i32, ptr %nYear.addr, align 4
  %add = add i32 %13, %div
  store i32 %add, ptr %nYear.addr, align 4
  %14 = load i32, ptr %nMonth.addr, align 4
  %sub31 = sub i32 %14, 1
  %rem = urem i32 %sub31, 12
  %add32 = add i32 %rem, 1
  store i32 %add32, ptr %nMonth.addr, align 4
  br label %if.end33

if.end33:                                         ; preds = %if.then30, %if.end28
  %15 = load i32, ptr %nYear.addr, align 4
  %sub34 = sub i32 %15, 1
  %div35 = udiv i32 %sub34, 4
  %16 = load i32, ptr %nYear.addr, align 4
  %sub36 = sub i32 %16, 1
  %div37 = udiv i32 %sub36, 100
  %sub38 = sub i32 %div35, %div37
  %17 = load i32, ptr %nYear.addr, align 4
  %sub39 = sub i32 %17, 1
  %div40 = udiv i32 %sub39, 400
  %add41 = add i32 %sub38, %div40
  store i32 %add41, ptr %leapYearCount, align 4
  %18 = load i32, ptr %nYear.addr, align 4
  %sub42 = sub i32 %18, 1
  %mul = mul i32 %sub42, 365
  %19 = load i32, ptr %leapYearCount, align 4
  %add43 = add i32 %mul, %19
  %conv = zext i32 %add43 to i64
  store i64 %conv, ptr %nDays, align 8
  %20 = load i32, ptr %nYear.addr, align 4
  %call44 = call noundef zeroext i1 @_ZN2EA4StdC10IsLeapYearEj(i32 noundef %20)
  %cond = select i1 %call44, i32 1, i32 0
  store i32 %cond, ptr %isLeapYear, align 4
  %21 = load i32, ptr %nMonth.addr, align 4
  %sub45 = sub i32 %21, 1
  %22 = load i32, ptr %isLeapYear, align 4
  %mul46 = mul nsw i32 13, %22
  %add47 = add i32 %sub45, %mul46
  %idxprom = zext i32 %add47 to i64
  %arrayidx = getelementptr inbounds [26 x i32], ptr @_ZN2EA4StdCL11kDaysInYearE, i64 0, i64 %idxprom
  %23 = load i32, ptr %arrayidx, align 4
  %24 = load i32, ptr %nDayOfMonth.addr, align 4
  %sub48 = sub i32 %24, 0
  %add49 = add i32 %23, %sub48
  %conv50 = zext i32 %add49 to i64
  %25 = load i64, ptr %nDays, align 8
  %add51 = add nsw i64 %25, %conv50
  store i64 %add51, ptr %nDays, align 8
  %26 = load i64, ptr %nDays, align 8
  %mul52 = mul nsw i64 %26, 86400
  %mnSeconds = getelementptr inbounds %"class.EA::StdC::DateTime", ptr %this1, i32 0, i32 0
  store i64 %mul52, ptr %mnSeconds, align 8
  %27 = load i32, ptr %nHour.addr, align 4
  %mul53 = mul i32 %27, 3600
  %conv54 = zext i32 %mul53 to i64
  %mnSeconds55 = getelementptr inbounds %"class.EA::StdC::DateTime", ptr %this1, i32 0, i32 0
  %28 = load i64, ptr %mnSeconds55, align 8
  %add56 = add nsw i64 %28, %conv54
  store i64 %add56, ptr %mnSeconds55, align 8
  %29 = load i32, ptr %nMinute.addr, align 4
  %mul57 = mul i32 %29, 60
  %conv58 = zext i32 %mul57 to i64
  %mnSeconds59 = getelementptr inbounds %"class.EA::StdC::DateTime", ptr %this1, i32 0, i32 0
  %30 = load i64, ptr %mnSeconds59, align 8
  %add60 = add nsw i64 %30, %conv58
  store i64 %add60, ptr %mnSeconds59, align 8
  %31 = load i32, ptr %nSecond.addr, align 4
  %conv61 = zext i32 %31 to i64
  %mnSeconds62 = getelementptr inbounds %"class.EA::StdC::DateTime", ptr %this1, i32 0, i32 0
  %32 = load i64, ptr %mnSeconds62, align 8
  %add63 = add nsw i64 %32, %conv61
  store i64 %add63, ptr %mnSeconds62, align 8
  %33 = load i32, ptr %nNanosecond.addr, align 4
  %div64 = udiv i32 %33, 1000000000
  %conv65 = zext i32 %div64 to i64
  %mnSeconds66 = getelementptr inbounds %"class.EA::StdC::DateTime", ptr %this1, i32 0, i32 0
  %34 = load i64, ptr %mnSeconds66, align 8
  %add67 = add nsw i64 %34, %conv65
  store i64 %add67, ptr %mnSeconds66, align 8
  %35 = load i32, ptr %nNanosecond.addr, align 4
  %rem68 = urem i32 %35, 1000000000
  %mnNanosecond69 = getelementptr inbounds %"class.EA::StdC::DateTime", ptr %this1, i32 0, i32 1
  store i32 %rem68, ptr %mnNanosecond69, align 8
  ret void
}