; Function Attrs: mustprogress nofree nosync nounwind willreturn memory(argmem: readwrite) uwtable
define dso_local void @_ZN2EA4StdC8DateTime3SetEjjjjjjj(ptr noundef nonnull align 8 dereferenceable(12) %this, i32 noundef %nYear, i32 noundef %nMonth, i32 noundef %nDayOfMonth, i32 noundef %nHour, i32 noundef %nMinute, i32 noundef %nSecond, i32 noundef %nNanosecond) local_unnamed_addr #8 align 2 {
entry:
  %0 = add i32 %nYear, -1
  %or.cond = icmp ult i32 %0, -2
  br i1 %or.cond, label %if.end, label %if.then

if.then:                                          ; preds = %entry
  %1 = load i64, ptr %this, align 8
  %div.i = sdiv i64 %1, 86400
  %div2.i = sdiv i64 %1, 31536000
  %sub.i = add nsw i64 %div2.i, -1
  %div3.neg.i = sdiv i64 %sub.i, -4
  %div6.neg.neg.i = sdiv i64 %sub.i, 100
  %div10.neg.i = sdiv i64 %sub.i, -400
  %sub7.neg.i = add nsw i64 %div.i, -1
  %add.neg.i = add nsw i64 %sub7.neg.i, %div3.neg.i
  %sub11.i = add nsw i64 %add.neg.i, %div6.neg.neg.i
  %sub12.i = add nsw i64 %sub11.i, %div10.neg.i
  %div13.i = sdiv i64 %sub12.i, 365
  %conv.i = trunc i64 %div13.i to i32
  %add14.i = add i32 %conv.i, 1
  br label %if.end

if.end:                                           ; preds = %entry, %if.then
  %nYear.addr.0 = phi i32 [ %nYear, %entry ], [ %add14.i, %if.then ]
  %2 = add i32 %nMonth, -1
  %or.cond1 = icmp ult i32 %2, -2
  br i1 %or.cond1, label %if.end7, label %if.then5

if.then5:                                         ; preds = %if.end
  %call6 = tail call noundef i32 @_ZNK2EA4StdC8DateTime12GetParameterENS0_9ParameterE(ptr noundef nonnull align 8 dereferenceable(12) %this, i32 noundef 2)
  br label %if.end7

if.end7:                                          ; preds = %if.end, %if.then5
  %nMonth.addr.0 = phi i32 [ %nMonth, %if.end ], [ %call6, %if.then5 ]
  %3 = add i32 %nDayOfMonth, -1
  %or.cond2 = icmp ult i32 %3, -2
  br i1 %or.cond2, label %if.end13, label %if.then11

if.then11:                                        ; preds = %if.end7
  %call12 = tail call noundef i32 @_ZNK2EA4StdC8DateTime12GetParameterENS0_9ParameterE(ptr noundef nonnull align 8 dereferenceable(12) %this, i32 noundef 6)
  br label %if.end13

if.end13:                                         ; preds = %if.end7, %if.then11
  %nDayOfMonth.addr.0 = phi i32 [ %nDayOfMonth, %if.end7 ], [ %call12, %if.then11 ]
  %cmp14 = icmp eq i32 %nHour, -1
  br i1 %cmp14, label %if.then15, label %if.end17

if.then15:                                        ; preds = %if.end13
  %4 = load i64, ptr %this, align 8
  %div70.i = sdiv i64 %4, 3600
  %rem71.i = srem i64 %div70.i, 24
  %conv72.i = trunc nsw i64 %rem71.i to i32
  br label %if.end17

if.end17:                                         ; preds = %if.then15, %if.end13
  %nHour.addr.0 = phi i32 [ %conv72.i, %if.then15 ], [ %nHour, %if.end13 ]
  %cmp18 = icmp eq i32 %nMinute, -1
  br i1 %cmp18, label %if.then19, label %if.end21

if.then19:                                        ; preds = %if.end17
  %5 = load i64, ptr %this, align 8
  %div75.i = sdiv i64 %5, 60
  %rem76.i = srem i64 %div75.i, 60
  %conv77.i = trunc nsw i64 %rem76.i to i32
  br label %if.end21

if.end21:                                         ; preds = %if.then19, %if.end17
  %nMinute.addr.0 = phi i32 [ %conv77.i, %if.then19 ], [ %nMinute, %if.end17 ]
  %cmp22 = icmp eq i32 %nSecond, -1
  br i1 %cmp22, label %if.then23, label %if.end25

if.then23:                                        ; preds = %if.end21
  %6 = load i64, ptr %this, align 8
  %rem80.i = srem i64 %6, 60
  %conv81.i = trunc nsw i64 %rem80.i to i32
  br label %if.end25

if.end25:                                         ; preds = %if.then23, %if.end21
  %nSecond.addr.0 = phi i32 [ %conv81.i, %if.then23 ], [ %nSecond, %if.end21 ]
  %mnNanosecond = getelementptr inbounds nuw i8, ptr %this, i64 8
  %7 = load i32, ptr %mnNanosecond, align 8
  %cmp29 = icmp ugt i32 %nMonth.addr.0, 12
  br i1 %cmp29, label %if.then30, label %if.end33

if.then30:                                        ; preds = %if.end25
  %sub = add i32 %nMonth.addr.0, -1
  %div = udiv i32 %sub, 12
  %add = add i32 %div, %nYear.addr.0
  %rem = urem i32 %sub, 12
  %add32 = add nuw nsw i32 %rem, 1
  br label %if.end33

if.end33:                                         ; preds = %if.then30, %if.end25
  %nMonth.addr.1 = phi i32 [ %add32, %if.then30 ], [ %nMonth.addr.0, %if.end25 ]
  %nYear.addr.1 = phi i32 [ %add, %if.then30 ], [ %nYear.addr.0, %if.end25 ]
  %nYear.addr.1.fr = freeze i32 %nYear.addr.1
  %and.i = and i32 %nYear.addr.1.fr, 3
  %tobool.not.i = icmp ne i32 %and.i, 0
  %rem.i = urem i32 %nYear.addr.1.fr, 100
  %tobool1.not.i = icmp eq i32 %rem.i, 0
  %or.cond.i = or i1 %tobool.not.i, %tobool1.not.i
  br i1 %or.cond.i, label %_ZN2EA4StdC10IsLeapYearEj.exit, label %_ZN2EA4StdC10IsLeapYearEj.exit.thread

_ZN2EA4StdC10IsLeapYearEj.exit:                   ; preds = %if.end33
  %rem2.i = urem i32 %nYear.addr.1.fr, 400
  %tobool3.not.i = icmp eq i32 %rem2.i, 0
  %spec.select = select i1 %tobool3.not.i, i32 13, i32 0
  br label %_ZN2EA4StdC10IsLeapYearEj.exit.thread

_ZN2EA4StdC10IsLeapYearEj.exit.thread:            ; preds = %if.end33, %_ZN2EA4StdC10IsLeapYearEj.exit
  %8 = phi i32 [ %spec.select, %_ZN2EA4StdC10IsLeapYearEj.exit ], [ 13, %if.end33 ]
  %sub4526 = add nsw i32 %nMonth.addr.1, -1
  %sub34 = add i32 %nYear.addr.1.fr, -1
  %mul = mul i32 %sub34, 365
  %div3523 = lshr i32 %sub34, 2
  %div37 = udiv i32 %sub34, 100
  %sub38 = sub nsw i32 %div3523, %div37
  %div40 = udiv i32 %sub34, 400
  %add41 = add nsw i32 %sub38, %div40
  %add43 = add i32 %add41, %mul
  %conv = zext i32 %add43 to i64
  %cmp26 = icmp eq i32 %nNanosecond, -1
  %nNanosecond.addr.0 = select i1 %cmp26, i32 %7, i32 %nNanosecond
  %add47 = add nsw i32 %sub4526, %8
  %idxprom = zext i32 %add47 to i64
  %arrayidx = getelementptr inbounds nuw [26 x i32], ptr @_ZN2EA4StdCL11kDaysInYearE, i64 0, i64 %idxprom
  %9 = load i32, ptr %arrayidx, align 4
  %add49 = add i32 %9, %nDayOfMonth.addr.0
  %conv50 = zext i32 %add49 to i64
  %add51 = add nuw nsw i64 %conv50, %conv
  %mul52 = mul nuw nsw i64 %add51, 86400
  %mul53 = mul i32 %nHour.addr.0, 3600
  %conv54 = zext i32 %mul53 to i64
  %mul57 = mul i32 %nMinute.addr.0, 60
  %conv58 = zext i32 %mul57 to i64
  %conv61 = zext i32 %nSecond.addr.0 to i64
  %div64 = udiv i32 %nNanosecond.addr.0, 1000000000
  %conv65 = zext nneg i32 %div64 to i64
  %add56 = add nuw nsw i64 %conv58, %conv54
  %add60 = add nuw nsw i64 %add56, %conv61
  %add63 = add nuw nsw i64 %add60, %conv65
  %add67 = add nuw nsw i64 %add63, %mul52
  store i64 %add67, ptr %this, align 8
  %rem68 = urem i32 %nNanosecond.addr.0, 1000000000
  store i32 %rem68, ptr %mnNanosecond, align 8
  ret void
}